; Function Attrs: mustprogress nounwind uwtable
define hidden noundef ptr @_ZN19CDSProtectionDomain38get_protection_domain_from_classloaderE6HandleS0_P10JavaThread(ptr %0, ptr %1, ptr noundef %2) local_unnamed_addr #0 align 2 {
  %4 = alloca %class.JavaValue, align 8
  %5 = load ptr, ptr getelementptr inbounds (i8, ptr @_ZN9vmClasses8_klassesE, i64 720), align 8
  %6 = load ptr, ptr getelementptr inbounds (i8, ptr @_ZN6Symbol11_vm_symbolsE, i64 4072), align 8
  %7 = tail call ptr @_ZN9JavaCalls22construct_new_instanceEP13InstanceKlassP6Symbol6HandleS4_P10JavaThread(ptr noundef %5, ptr noundef %6, ptr %1, ptr null, ptr noundef %2) #7
  %8 = getelementptr inbounds i8, ptr %2, i64 8
  %9 = load ptr, ptr %8, align 8
  %.not = icmp eq ptr %9, null
  br i1 %.not, label %10, label %_ZN6HandleC2EP6ThreadP7oopDesc.exit

10:                                               ; preds = %3
  %11 = load ptr, ptr getelementptr inbounds (i8, ptr @_ZN9vmClasses8_klassesE, i64 120), align 8
  store i8 12, ptr %4, align 8
  %12 = load ptr, ptr getelementptr inbounds (i8, ptr @_ZN6Symbol11_vm_symbolsE, i64 4008), align 8
  %13 = load ptr, ptr getelementptr inbounds (i8, ptr @_ZN6Symbol11_vm_symbolsE, i64 4016), align 8
  call void @_ZN9JavaCalls12call_virtualEP9JavaValue6HandleP5KlassP6SymbolS6_S2_P10JavaThread(ptr noundef nonnull %4, ptr %0, ptr noundef %11, ptr noundef %12, ptr noundef %13, ptr %7, ptr noundef nonnull %2) #7
  %14 = load ptr, ptr %8, align 8
  %.not12 = icmp eq ptr %14, null
  br i1 %.not12, label %15, label %_ZN6HandleC2EP6ThreadP7oopDesc.exit

15:                                               ; preds = %10
  %16 = getelementptr inbounds i8, ptr %4, i64 8
  %17 = load ptr, ptr %16, align 8
  %18 = icmp eq ptr %17, null
  br i1 %18, label %_ZN6HandleC2EP6ThreadP7oopDesc.exit, label %19

19:                                               ; preds = %15
  %20 = getelementptr inbounds i8, ptr %2, i64 808
  %21 = load ptr, ptr %20, align 8
  %22 = getelementptr inbounds i8, ptr %21, i64 40
  %23 = load ptr, ptr %22, align 8
  %24 = getelementptr inbounds i8, ptr %21, i64 32
  %25 = load ptr, ptr %24, align 8
  %26 = ptrtoint ptr %23 to i64
  %27 = ptrtoint ptr %25 to i64
  %28 = sub i64 %26, %27
  %.not.i.i.i.i = icmp ult i64 %28, 8
  br i1 %.not.i.i.i.i, label %31, label %29

29:                                               ; preds = %19
  %30 = getelementptr inbounds i8, ptr %25, i64 8
  store ptr %30, ptr %24, align 8
  br label %_ZN10HandleArea15allocate_handleEP7oopDesc.exit.i

31:                                               ; preds = %19
  %32 = call noundef ptr @_ZN5Arena4growEmN17AllocFailStrategy13AllocFailEnumE(ptr noundef nonnull align 8 dereferenceable(48) %21, i64 noundef 8, i32 noundef 0) #7
  br label %_ZN10HandleArea15allocate_handleEP7oopDesc.exit.i

_ZN10HandleArea15allocate_handleEP7oopDesc.exit.i: ; preds = %31, %29
  %.0.i.i.i.i = phi ptr [ %25, %29 ], [ %32, %31 ]
  store ptr %17, ptr %.0.i.i.i.i, align 8
  br label %_ZN6HandleC2EP6ThreadP7oopDesc.exit

_ZN6HandleC2EP6ThreadP7oopDesc.exit:              ; preds = %_ZN10HandleArea15allocate_handleEP7oopDesc.exit.i, %15, %10, %3
  %.sroa.011.0 = phi ptr [ null, %3 ], [ null, %10 ], [ %.0.i.i.i.i, %_ZN10HandleArea15allocate_handleEP7oopDesc.exit.i ], [ null, %15 ]
  ret ptr %.sroa.011.0
}